target datalayout = "e-m:e-p270:32:32-p271:32:32-p272:64:64-i64:64-i128:128-f80:128-n8:16:32:64-S128"
target triple = "x86_64-pc-linux-gnu"

%struct._psqlSettings = type { ptr, i32, ptr, i8, ptr, ptr, %struct.printQueryOpt, ptr, ptr, ptr, i8, i8, i32, i32, ptr, ptr, i8, [4 x ptr], i8, i32, ptr, i8, i32, ptr, ptr, i64, i64, i8, ptr, ptr, ptr, i8, i8, i8, i8, i8, i8, i8, i32, i32, i32, i32, i32, i32, i32, i32, ptr, ptr, ptr, i32, i8, i32 }
%struct.printQueryOpt = type { %struct.printTableOpt, ptr, ptr, ptr, i8, ptr, i32 }
%struct.printTableOpt = type { i32, i16, i32, i32, i16, i16, i32, i8, i8, i8, i8, i64, ptr, %struct.separator, %struct.separator, [2 x i8], i8, ptr, i32, i32, i32, i32, i32, i32 }
%struct.separator = type { ptr, i8 }
%struct._variable = type { ptr, ptr, ptr, ptr, ptr }

@pset = external global %struct._psqlSettings, align 8
@completion_charpp = internal global ptr null, align 8
@completion_case_sensitive = internal global i8 0, align 1
@.str.120 = private unnamed_addr constant [7 x i8] c"%s%s%s\00", align 1

; Function Attrs: nounwind uwtable
define internal void @append_variable_names(ptr noundef %0, ptr noundef %1, ptr noundef %2, ptr noundef %3, ptr noundef %4, ptr noundef %5) #0 {
  %7 = alloca ptr, align 8
  %8 = alloca ptr, align 8
  %9 = alloca ptr, align 8
  %10 = alloca ptr, align 8
  %11 = alloca ptr, align 8
  %12 = alloca ptr, align 8
  store ptr %0, ptr %7, align 8
  store ptr %1, ptr %8, align 8
  store ptr %2, ptr %9, align 8
  store ptr %3, ptr %10, align 8
  store ptr %4, ptr %11, align 8
  store ptr %5, ptr %12, align 8
  %13 = load ptr, ptr %8, align 8
  %14 = load i32, ptr %13, align 4
  %15 = load ptr, ptr %9, align 8
  %16 = load i32, ptr %15, align 4
  %17 = icmp sge i32 %14, %16
  br i1 %17, label %18, label %31

18:                                               ; preds = %6
  %19 = load ptr, ptr %9, align 8
  %20 = load i32, ptr %19, align 4
  %21 = mul i32 %20, 2
  store i32 %21, ptr %19, align 4
  %22 = load ptr, ptr %7, align 8
  %23 = load ptr, ptr %22, align 8
  %24 = load ptr, ptr %9, align 8
  %25 = load i32, ptr %24, align 4
  %26 = add i32 %25, 1
  %27 = sext i32 %26 to i64
  %28 = mul i64 %27, 8
  %29 = call ptr @pg_realloc(ptr noundef %23, i64 noundef %28)
  %30 = load ptr, ptr %7, align 8
  store ptr %29, ptr %30, align 8
  br label %31

31:                                               ; preds = %18, %6
  %32 = load ptr, ptr %11, align 8
  %33 = load ptr, ptr %10, align 8
  %34 = load ptr, ptr %12, align 8
  %35 = call ptr (ptr, ...) @psprintf(ptr noundef @.str.120, ptr noundef %32, ptr noundef %33, ptr noundef %34)
  %36 = load ptr, ptr %7, align 8
  %37 = load ptr, ptr %36, align 8
  %38 = load ptr, ptr %8, align 8
  %39 = load i32, ptr %38, align 4
  %40 = add i32 %39, 1
  store i32 %40, ptr %38, align 4
  %41 = sext i32 %39 to i64
  %42 = getelementptr inbounds ptr, ptr %37, i64 %41
  store ptr %35, ptr %42, align 8
  ret void
}

; Function Attrs: nounwind uwtable
define internal ptr @complete_from_variables(ptr noundef %0, ptr noundef %1, ptr noundef %2, i1 noundef zeroext %3) #0 {
  %5 = alloca ptr, align 8
  %6 = alloca ptr, align 8
  %7 = alloca ptr, align 8
  %8 = alloca i8, align 1
  %9 = alloca ptr, align 8
  %10 = alloca ptr, align 8
  %11 = alloca i32, align 4
  %12 = alloca i32, align 4
  %13 = alloca i32, align 4
  %14 = alloca ptr, align 8
  store ptr %0, ptr %5, align 8
  store ptr %1, ptr %6, align 8
  store ptr %2, ptr %7, align 8
  %15 = zext i1 %3 to i8
  store i8 %15, ptr %8, align 1
  call void @llvm.lifetime.start.p0(i64 8, ptr %9) #8
  call void @llvm.lifetime.start.p0(i64 8, ptr %10) #8
  call void @llvm.lifetime.start.p0(i64 4, ptr %11) #8
  store i32 0, ptr %11, align 4
  call void @llvm.lifetime.start.p0(i64 4, ptr %12) #8
  store i32 100, ptr %12, align 4
  call void @llvm.lifetime.start.p0(i64 4, ptr %13) #8
  call void @llvm.lifetime.start.p0(i64 8, ptr %14) #8
  %16 = load i32, ptr %12, align 4
  %17 = add i32 %16, 1
  %18 = sext i32 %17 to i64
  %19 = mul i64 %18, 8
  %20 = call ptr @pg_malloc(i64 noundef %19)
  store ptr %20, ptr %10, align 8
  %21 = load ptr, ptr getelementptr inbounds nuw (%struct._psqlSettings, ptr @pset, i32 0, i32 29), align 8
  %22 = getelementptr inbounds nuw %struct._variable, ptr %21, i32 0, i32 4
  %23 = load ptr, ptr %22, align 8
  store ptr %23, ptr %14, align 8
  br label %24

24:                                               ; preds = %42, %4
  %25 = load ptr, ptr %14, align 8
  %26 = icmp ne ptr %25, null
  br i1 %26, label %27, label %46

27:                                               ; preds = %24
  %28 = load i8, ptr %8, align 1, !range !6, !noundef !7
  %29 = trunc i8 %28 to i1
  br i1 %29, label %30, label %36

30:                                               ; preds = %27
  %31 = load ptr, ptr %14, align 8
  %32 = getelementptr inbounds nuw %struct._variable, ptr %31, i32 0, i32 1
  %33 = load ptr, ptr %32, align 8
  %34 = icmp ne ptr %33, null
  br i1 %34, label %36, label %35

35:                                               ; preds = %30
  br label %42

36:                                               ; preds = %30, %27
  %37 = load ptr, ptr %14, align 8
  %38 = getelementptr inbounds nuw %struct._variable, ptr %37, i32 0, i32 0
  %39 = load ptr, ptr %38, align 8
  %40 = load ptr, ptr %6, align 8
  %41 = load ptr, ptr %7, align 8
  call void @append_variable_names(ptr noundef %10, ptr noundef %11, ptr noundef %12, ptr noundef %39, ptr noundef %40, ptr noundef %41)
  br label %42

42:                                               ; preds = %36, %35
  %43 = load ptr, ptr %14, align 8
  %44 = getelementptr inbounds nuw %struct._variable, ptr %43, i32 0, i32 4
  %45 = load ptr, ptr %44, align 8
  store ptr %45, ptr %14, align 8
  br label %24, !llvm.loop !15

46:                                               ; preds = %24
  %47 = load ptr, ptr %10, align 8
  %48 = load i32, ptr %11, align 4
  %49 = sext i32 %48 to i64
  %50 = getelementptr inbounds ptr, ptr %47, i64 %49
  store ptr null, ptr %50, align 8
  br label %51

51:                                               ; preds = %46
  store i8 1, ptr @completion_case_sensitive, align 1
  %52 = load ptr, ptr %10, align 8
  store ptr %52, ptr @completion_charpp, align 8
  %53 = load ptr, ptr %5, align 8
  %54 = call ptr @rl_completion_matches(ptr noundef %53, ptr noundef @complete_from_list)
  store ptr %54, ptr %9, align 8
  br label %55

55:                                               ; preds = %51
  br label %56

56:                                               ; preds = %55
  store i32 0, ptr %13, align 4
  br label %57

57:                                               ; preds = %67, %56
  %58 = load i32, ptr %13, align 4
  %59 = load i32, ptr %11, align 4
  %60 = icmp slt i32 %58, %59
  br i1 %60, label %61, label %70

61:                                               ; preds = %57
  %62 = load ptr, ptr %10, align 8
  %63 = load i32, ptr %13, align 4
  %64 = sext i32 %63 to i64
  %65 = getelementptr inbounds ptr, ptr %62, i64 %64
  %66 = load ptr, ptr %65, align 8
  call void @free(ptr noundef %66) #8
  br label %67

67:                                               ; preds = %61
  %68 = load i32, ptr %13, align 4
  %69 = add i32 %68, 1
  store i32 %69, ptr %13, align 4
  br label %57, !llvm.loop !16

70:                                               ; preds = %57
  %71 = load ptr, ptr %10, align 8
  call void @free(ptr noundef %71) #8
  %72 = load ptr, ptr %9, align 8
  call void @llvm.lifetime.end.p0(i64 8, ptr %14) #8
  call void @llvm.lifetime.end.p0(i64 4, ptr %13) #8
  call void @llvm.lifetime.end.p0(i64 4, ptr %12) #8
  call void @llvm.lifetime.end.p0(i64 4, ptr %11) #8
  call void @llvm.lifetime.end.p0(i64 8, ptr %10) #8
  call void @llvm.lifetime.end.p0(i64 8, ptr %9) #8
  ret ptr %72
}