; Function Attrs: nounwind uwtable
define internal fastcc ptr @complete_from_variables(ptr noundef %0, ptr noundef %1, ptr noundef %2, i1 noundef zeroext %3) unnamed_addr #0 {
  %5 = tail call ptr @pg_malloc(i64 noundef 808) #11
  %6 = load ptr, ptr getelementptr inbounds nuw (i8, ptr @pset, i64 384), align 8
  %.0.in28 = getelementptr inbounds nuw i8, ptr %6, i64 32
  %.029 = load ptr, ptr %.0.in28, align 8
  %.not30 = icmp eq ptr %.029, null
  br i1 %.not30, label %._crit_edge, label %.lr.ph

.lr.ph:                                           ; preds = %4
  br i1 %3, label %.lr.ph.split.us, label %.lr.ph.split

.lr.ph.split.us:                                  ; preds = %.lr.ph, %21
  %.034.us = phi ptr [ %.0.us, %21 ], [ %.029, %.lr.ph ]
  %.02233.us = phi i32 [ %.1.us, %21 ], [ 100, %.lr.ph ]
  %.02332.us = phi i32 [ %.124.us, %21 ], [ 0, %.lr.ph ]
  %.02531.us = phi ptr [ %.126.us, %21 ], [ %5, %.lr.ph ]
  %7 = getelementptr inbounds nuw i8, ptr %.034.us, i64 8
  %8 = load ptr, ptr %7, align 8
  %.not12.us = icmp eq ptr %8, null
  br i1 %.not12.us, label %21, label %9

9:                                                ; preds = %.lr.ph.split.us
  %10 = load ptr, ptr %.034.us, align 8
  %.not.i.us = icmp slt i32 %.02332.us, %.02233.us
  br i1 %.not.i.us, label %append_variable_names.exit.us, label %11

11:                                               ; preds = %9
  %12 = shl i32 %.02233.us, 1
  %13 = or disjoint i32 %12, 1
  %14 = sext i32 %13 to i64
  %15 = shl nsw i64 %14, 3
  %16 = tail call ptr @pg_realloc(ptr noundef %.02531.us, i64 noundef %15) #11
  br label %append_variable_names.exit.us

append_variable_names.exit.us:                    ; preds = %11, %9
  %.227.us = phi ptr [ %.02531.us, %9 ], [ %16, %11 ]
  %.2.us = phi i32 [ %.02233.us, %9 ], [ %12, %11 ]
  %17 = tail call ptr (ptr, ...) @psprintf(ptr noundef nonnull @.str.120, ptr noundef %1, ptr noundef %10, ptr noundef %2) #11
  %18 = add i32 %.02332.us, 1
  %19 = sext i32 %.02332.us to i64
  %20 = getelementptr inbounds ptr, ptr %.227.us, i64 %19
  store ptr %17, ptr %20, align 8
  br label %21

21:                                               ; preds = %append_variable_names.exit.us, %.lr.ph.split.us
  %.126.us = phi ptr [ %.02531.us, %.lr.ph.split.us ], [ %.227.us, %append_variable_names.exit.us ]
  %.124.us = phi i32 [ %.02332.us, %.lr.ph.split.us ], [ %18, %append_variable_names.exit.us ]
  %.1.us = phi i32 [ %.02233.us, %.lr.ph.split.us ], [ %.2.us, %append_variable_names.exit.us ]
  %.0.in.us = getelementptr inbounds nuw i8, ptr %.034.us, i64 32
  %.0.us = load ptr, ptr %.0.in.us, align 8
  %.not.us = icmp eq ptr %.0.us, null
  br i1 %.not.us, label %._crit_edge, label %.lr.ph.split.us, !llvm.loop !19

.lr.ph.split:                                     ; preds = %.lr.ph, %append_variable_names.exit
  %.034 = phi ptr [ %.0, %append_variable_names.exit ], [ %.029, %.lr.ph ]
  %.02233 = phi i32 [ %.2, %append_variable_names.exit ], [ 100, %.lr.ph ]
  %.02332 = phi i32 [ %30, %append_variable_names.exit ], [ 0, %.lr.ph ]
  %.02531 = phi ptr [ %.227, %append_variable_names.exit ], [ %5, %.lr.ph ]
  %22 = load ptr, ptr %.034, align 8
  %.not.i = icmp slt i32 %.02332, %.02233
  br i1 %.not.i, label %append_variable_names.exit, label %23

23:                                               ; preds = %.lr.ph.split
  %24 = shl i32 %.02233, 1
  %25 = or disjoint i32 %24, 1
  %26 = sext i32 %25 to i64
  %27 = shl nsw i64 %26, 3
  %28 = tail call ptr @pg_realloc(ptr noundef %.02531, i64 noundef %27) #11
  br label %append_variable_names.exit

append_variable_names.exit:                       ; preds = %.lr.ph.split, %23
  %.227 = phi ptr [ %.02531, %.lr.ph.split ], [ %28, %23 ]
  %.2 = phi i32 [ %.02233, %.lr.ph.split ], [ %24, %23 ]
  %29 = tail call ptr (ptr, ...) @psprintf(ptr noundef nonnull @.str.120, ptr noundef %1, ptr noundef %22, ptr noundef %2) #11
  %30 = add i32 %.02332, 1
  %31 = sext i32 %.02332 to i64
  %32 = getelementptr inbounds ptr, ptr %.227, i64 %31
  store ptr %29, ptr %32, align 8
  %.0.in = getelementptr inbounds nuw i8, ptr %.034, i64 32
  %.0 = load ptr, ptr %.0.in, align 8
  %.not = icmp eq ptr %.0, null
  br i1 %.not, label %._crit_edge, label %.lr.ph.split, !llvm.loop !19

._crit_edge:                                      ; preds = %append_variable_names.exit, %21, %4
  %.025.lcssa = phi ptr [ %5, %4 ], [ %.126.us, %21 ], [ %.227, %append_variable_names.exit ]
  %.023.lcssa = phi i32 [ 0, %4 ], [ %.124.us, %21 ], [ %30, %append_variable_names.exit ]
  %33 = sext i32 %.023.lcssa to i64
  %34 = getelementptr inbounds ptr, ptr %.025.lcssa, i64 %33
  store ptr null, ptr %34, align 8
  store i1 true, ptr @completion_case_sensitive, align 1
  store ptr %.025.lcssa, ptr @completion_charpp, align 8
  %35 = tail call ptr @rl_completion_matches(ptr noundef %0, ptr noundef nonnull @complete_from_list) #11
  %36 = icmp sgt i32 %.023.lcssa, 0
  br i1 %36, label %.lr.ph39.preheader, label %._crit_edge40

.lr.ph39.preheader:                               ; preds = %._crit_edge
  %wide.trip.count = zext nneg i32 %.023.lcssa to i64
  br label %.lr.ph39

.lr.ph39:                                         ; preds = %.lr.ph39.preheader, %.lr.ph39
  %indvars.iv = phi i64 [ 0, %.lr.ph39.preheader ], [ %indvars.iv.next, %.lr.ph39 ]
  %37 = getelementptr inbounds nuw ptr, ptr %.025.lcssa, i64 %indvars.iv
  %38 = load ptr, ptr %37, align 8
  tail call void @free(ptr noundef %38) #11
  %indvars.iv.next = add nuw nsw i64 %indvars.iv, 1
  %exitcond.not = icmp eq i64 %indvars.iv.next, %wide.trip.count
  br i1 %exitcond.not, label %._crit_edge40, label %.lr.ph39, !llvm.loop !20

._crit_edge40:                                    ; preds = %.lr.ph39, %._crit_edge
  tail call void @free(ptr noundef nonnull %.025.lcssa) #11
  ret ptr %35
}